; Function Attrs: mustprogress nounwind uwtable
define hidden void @_ZN23G1FullGCMonitoringScopeC2EP19G1MonitoringSupport(ptr noundef nonnull align 8 dereferenceable(88) %0, ptr noundef %1) unnamed_addr #0 align 2 {
  %3 = getelementptr inbounds i8, ptr %1, i64 616
  %4 = load ptr, ptr %3, align 8
  %5 = getelementptr inbounds i8, ptr %1, i64 200
  store ptr %1, ptr %0, align 8
  %6 = getelementptr inbounds i8, ptr %0, i64 8
  tail call void @_ZN19TraceCollectorStatsC1EP17CollectorCounters(ptr noundef nonnull align 8 dereferenceable(48) %6, ptr noundef %4) #10
  %7 = getelementptr inbounds i8, ptr %0, i64 56
  %8 = load ptr, ptr @_ZN8Universe14_collectedHeapE, align 8
  %9 = getelementptr inbounds i8, ptr %8, i64 80
  %10 = load i32, ptr %9, align 8
  tail call void @_ZN23TraceMemoryManagerStatsC1EP15GCMemoryManagerN7GCCause5CauseEPKcbbbbbbbb(ptr noundef nonnull align 8 dereferenceable(32) %7, ptr noundef nonnull %5, i32 noundef %10, ptr noundef nonnull @.str.16, i1 noundef zeroext true, i1 noundef zeroext true, i1 noundef zeroext true, i1 noundef zeroext true, i1 noundef zeroext true, i1 noundef zeroext true, i1 noundef zeroext true, i1 noundef zeroext true) #10
  ret void
}